target datalayout = "e-m:e-p270:32:32-p271:32:32-p272:64:64-i64:64-i128:128-f80:128-n8:16:32:64-S128"
target triple = "x86_64-pc-linux-gnu"

%"class.icu_77::UObject" = type { ptr }
%"class.icu_77::SharedNumberFormat" = type { %"class.icu_77::SharedObject", ptr }
%"class.icu_77::SharedObject" = type { %"class.icu_77::UObject", i32, %"struct.std::atomic", ptr }
%"struct.std::atomic" = type { %"struct.std::__atomic_base" }
%"struct.std::__atomic_base" = type { i32 }
%"class.icu_77::Locale" = type <{ %"class.icu_77::UObject", [12 x i8], [6 x i8], [4 x i8], [2 x i8], i32, [4 x i8], ptr, [157 x i8], [3 x i8], ptr, i8, [7 x i8] }>
%"class.icu_77::LocaleCacheKey" = type { %"class.icu_77::CacheKey.base", [3 x i8], %"class.icu_77::Locale" }
%"class.icu_77::CacheKey.base" = type { %"class.icu_77::CacheKeyBase.base" }
%"class.icu_77::CacheKeyBase.base" = type <{ %"class.icu_77::UObject", i32, i8 }>

@_ZTVN6icu_7718SharedNumberFormatE = unnamed_addr constant { [5 x ptr] } { [5 x ptr] [ptr null, ptr @_ZTIN6icu_7718SharedNumberFormatE, ptr @_ZN6icu_7718SharedNumberFormatD1Ev, ptr @_ZN6icu_7718SharedNumberFormatD0Ev, ptr @_ZNK6icu_777UObject17getDynamicClassIDEv] }, align 8
@_ZL8gService = internal global ptr null, align 8
@.str = private unnamed_addr constant [3 x i8] c"cf\00", align 1
@.str.1 = private unnamed_addr constant [8 x i8] c"account\00", align 1
@_ZTVN6icu_777UObjectE = available_externally unnamed_addr constant { [5 x ptr] } { [5 x ptr] [ptr null, ptr @_ZTIN6icu_777UObjectE, ptr @_ZN6icu_777UObjectD1Ev, ptr @_ZN6icu_777UObjectD0Ev, ptr @_ZNK6icu_777UObject17getDynamicClassIDEv] }, align 8
@_ZTVN6icu_7712SharedObjectE = available_externally unnamed_addr constant { [5 x ptr] } { [5 x ptr] [ptr null, ptr @_ZTIN6icu_7712SharedObjectE, ptr @_ZN6icu_7712SharedObjectD1Ev, ptr @_ZN6icu_7712SharedObjectD0Ev, ptr @_ZNK6icu_777UObject17getDynamicClassIDEv] }, align 8

; Function Attrs: mustprogress nounwind uwtable
define linkonce_odr void @_ZNSt13__atomic_baseIiEC2Ei(ptr noundef nonnull align 4 dereferenceable(4) %0, i32 noundef %1) unnamed_addr #0 comdat align 2 {
  %3 = alloca ptr, align 8
  %4 = alloca i32, align 4
  store ptr %0, ptr %3, align 8, !tbaa !219
  store i32 %1, ptr %4, align 4, !tbaa !14
  %5 = load ptr, ptr %3, align 8
  %6 = getelementptr inbounds nuw %"struct.std::__atomic_base", ptr %5, i32 0, i32 0
  %7 = load i32, ptr %4, align 4, !tbaa !14
  store i32 %7, ptr %6, align 4, !tbaa !231
  ret void
}

; Function Attrs: mustprogress nounwind uwtable
define linkonce_odr void @_ZNSt6atomicIiEC2Ei(ptr noundef nonnull align 4 dereferenceable(4) %0, i32 noundef %1) unnamed_addr #0 comdat align 2 {
  %3 = alloca ptr, align 8
  %4 = alloca i32, align 4
  store ptr %0, ptr %3, align 8, !tbaa !225
  store i32 %1, ptr %4, align 4, !tbaa !14
  %5 = load ptr, ptr %3, align 8
  %6 = load i32, ptr %4, align 4, !tbaa !14
  call void @_ZNSt13__atomic_baseIiEC2Ei(ptr noundef nonnull align 4 dereferenceable(4) %5, i32 noundef %6) #15
  ret void
}

; Function Attrs: inlinehint mustprogress nounwind uwtable
define linkonce_odr void @_ZN6icu_777UObjectC2Ev(ptr noundef nonnull align 8 dereferenceable(8) %0) unnamed_addr #2 comdat align 2 {
  %2 = alloca ptr, align 8
  store ptr %0, ptr %2, align 8, !tbaa !79
  %3 = load ptr, ptr %2, align 8
  store ptr getelementptr inbounds inrange(-16, 24) ({ [5 x ptr] }, ptr @_ZTVN6icu_777UObjectE, i32 0, i32 0, i32 2), ptr %3, align 8, !tbaa !30
  ret void
}

; Function Attrs: mustprogress nounwind uwtable
define linkonce_odr void @_ZN6icu_7712SharedObjectC2Ev(ptr noundef nonnull align 8 dereferenceable(24) %0) unnamed_addr #0 comdat align 2 {
  %2 = alloca ptr, align 8
  store ptr %0, ptr %2, align 8, !tbaa !227
  %3 = load ptr, ptr %2, align 8
  call void @_ZN6icu_777UObjectC2Ev(ptr noundef nonnull align 8 dereferenceable(8) %3) #15
  store ptr getelementptr inbounds inrange(-16, 24) ({ [5 x ptr] }, ptr @_ZTVN6icu_7712SharedObjectE, i32 0, i32 0, i32 2), ptr %3, align 8, !tbaa !30
  %4 = getelementptr inbounds nuw %"class.icu_77::SharedObject", ptr %3, i32 0, i32 1
  store i32 0, ptr %4, align 8, !tbaa !229
  %5 = getelementptr inbounds nuw %"class.icu_77::SharedObject", ptr %3, i32 0, i32 2
  call void @_ZNSt6atomicIiEC2Ei(ptr noundef nonnull align 4 dereferenceable(4) %5, i32 noundef 0) #15
  %6 = getelementptr inbounds nuw %"class.icu_77::SharedObject", ptr %3, i32 0, i32 3
  store ptr null, ptr %6, align 8, !tbaa !230
  ret void
}

; Function Attrs: mustprogress uwtable
define noundef ptr @_ZN6icu_7712NumberFormat12makeInstanceERKNS_6LocaleE18UNumberFormatStyleR10UErrorCode(ptr noundef nonnull align 8 dereferenceable(217) %0, i32 noundef %1, ptr noundef nonnull align 4 dereferenceable(4) %2) #1 align 2 {
  %4 = alloca ptr, align 8
  %5 = alloca i32, align 4
  %6 = alloca ptr, align 8
  store ptr %0, ptr %4, align 8, !tbaa !27
  store i32 %1, ptr %5, align 4, !tbaa !118
  store ptr %2, ptr %6, align 8, !tbaa !22
  %7 = load ptr, ptr %4, align 8, !tbaa !27
  %8 = load i32, ptr %5, align 4, !tbaa !118
  %9 = load ptr, ptr %6, align 8, !tbaa !22
  %10 = call noundef ptr @_ZN6icu_7712NumberFormat12makeInstanceERKNS_6LocaleE18UNumberFormatStyleaR10UErrorCode(ptr noundef nonnull align 8 dereferenceable(217) %7, i32 noundef %8, i8 noundef signext 0, ptr noundef nonnull align 4 dereferenceable(4) %9)
  ret ptr %10
}

; Function Attrs: inlinehint mustprogress nounwind uwtable
define internal noundef signext i8 @_ZL9U_SUCCESS10UErrorCode(i32 noundef %0) #2 {
  %2 = alloca i32, align 4
  store i32 %0, ptr %2, align 4, !tbaa !15
  %3 = load i32, ptr %2, align 4, !tbaa !15
  %4 = icmp sle i32 %3, 0
  %5 = zext i1 %4 to i8
  ret i8 %5
}

; Function Attrs: mustprogress uwtable
define linkonce_odr void @_ZN6icu_7718SharedNumberFormatC2EPNS_12NumberFormatE(ptr noundef nonnull align 8 dereferenceable(32) %0, ptr noundef %1) unnamed_addr #1 comdat align 2 {
  %3 = alloca ptr, align 8
  %4 = alloca ptr, align 8
  store ptr %0, ptr %3, align 8, !tbaa !56
  store ptr %1, ptr %4, align 8, !tbaa !40
  %5 = load ptr, ptr %3, align 8
  call void @_ZN6icu_7712SharedObjectC2Ev(ptr noundef nonnull align 8 dereferenceable(24) %5)
  store ptr getelementptr inbounds inrange(-16, 24) ({ [5 x ptr] }, ptr @_ZTVN6icu_7718SharedNumberFormatE, i32 0, i32 0, i32 2), ptr %5, align 8, !tbaa !30
  %6 = getelementptr inbounds nuw %"class.icu_77::SharedNumberFormat", ptr %5, i32 0, i32 1
  %7 = load ptr, ptr %4, align 8, !tbaa !40
  store ptr %7, ptr %6, align 8, !tbaa !58
  ret void
}

; Function Attrs: inlinehint mustprogress nounwind uwtable
define internal noundef signext i8 @_ZL9U_FAILURE10UErrorCode(i32 noundef %0) #2 {
  %2 = alloca i32, align 4
  store i32 %0, ptr %2, align 4, !tbaa !15
  %3 = load i32, ptr %2, align 4, !tbaa !15
  %4 = icmp sgt i32 %3, 0
  %5 = zext i1 %4 to i8
  ret i8 %5
}

; Function Attrs: mustprogress uwtable
define noundef ptr @_ZN6icu_7712NumberFormat22internalCreateInstanceERKNS_6LocaleE18UNumberFormatStyleR10UErrorCode(ptr noundef nonnull align 8 dereferenceable(217) %0, i32 noundef %1, ptr noundef nonnull align 4 dereferenceable(4) %2) #1 align 2 {
  %4 = alloca ptr, align 8
  %5 = alloca ptr, align 8
  %6 = alloca i32, align 4
  %7 = alloca ptr, align 8
  %8 = alloca [32 x i8], align 16
  %9 = alloca i32, align 4
  %10 = alloca i32, align 4
  store ptr %0, ptr %5, align 8, !tbaa !27
  store i32 %1, ptr %6, align 4, !tbaa !118
  store ptr %2, ptr %7, align 8, !tbaa !22
  %11 = load i32, ptr %6, align 4, !tbaa !118
  %12 = icmp eq i32 %11, 2
  br i1 %12, label %13, label %29

13:                                               ; preds = %3
  call void @llvm.lifetime.start.p0(i64 32, ptr %8) #15
  call void @llvm.memset.p0.i64(ptr align 16 %8, i8 0, i64 32, i1 false)
  call void @llvm.lifetime.start.p0(i64 4, ptr %9) #15
  store i32 0, ptr %9, align 4, !tbaa !15
  call void @llvm.lifetime.start.p0(i64 4, ptr %10) #15
  %14 = load ptr, ptr %5, align 8, !tbaa !27
  %15 = getelementptr inbounds [32 x i8], ptr %8, i64 0, i64 0
  %16 = call noundef i32 @_ZNK6icu_776Locale15getKeywordValueEPKcPciR10UErrorCode(ptr noundef nonnull align 8 dereferenceable(217) %14, ptr noundef @.str, ptr noundef %15, i32 noundef 32, ptr noundef nonnull align 4 dereferenceable(4) %9)
  store i32 %16, ptr %10, align 4, !tbaa !14
  %17 = load i32, ptr %9, align 4, !tbaa !15
  %18 = call noundef signext i8 @_ZL9U_SUCCESS10UErrorCode(i32 noundef %17)
  %19 = icmp ne i8 %18, 0
  br i1 %19, label %20, label %28

20:                                               ; preds = %13
  %21 = load i32, ptr %10, align 4, !tbaa !14
  %22 = icmp sgt i32 %21, 0
  br i1 %22, label %23, label %28

23:                                               ; preds = %20
  %24 = getelementptr inbounds [32 x i8], ptr %8, i64 0, i64 0
  %25 = call i32 @strcmp(ptr noundef %24, ptr noundef @.str.1) #11
  %26 = icmp eq i32 %25, 0
  br i1 %26, label %27, label %28

27:                                               ; preds = %23
  store i32 12, ptr %6, align 4, !tbaa !118
  br label %28

28:                                               ; preds = %27, %23, %20, %13
  call void @llvm.lifetime.end.p0(i64 4, ptr %10) #15
  call void @llvm.lifetime.end.p0(i64 4, ptr %9) #15
  call void @llvm.lifetime.end.p0(i64 32, ptr %8) #15
  br label %29

29:                                               ; preds = %28, %3
  %30 = call noundef signext i8 @_ZN6icu_77L11haveServiceEv()
  %31 = icmp ne i8 %30, 0
  br i1 %31, label %32, label %38

32:                                               ; preds = %29
  %33 = load ptr, ptr @_ZL8gService, align 8, !tbaa !139
  %34 = load ptr, ptr %5, align 8, !tbaa !27
  %35 = load i32, ptr %6, align 4, !tbaa !118
  %36 = load ptr, ptr %7, align 8, !tbaa !22
  %37 = call noundef ptr @_ZNK6icu_7716ICULocaleService3getERKNS_6LocaleEiR10UErrorCode(ptr noundef nonnull align 8 dereferenceable(408) %33, ptr noundef nonnull align 8 dereferenceable(217) %34, i32 noundef %35, ptr noundef nonnull align 4 dereferenceable(4) %36)
  store ptr %37, ptr %4, align 8
  br label %43

38:                                               ; preds = %29
  %39 = load ptr, ptr %5, align 8, !tbaa !27
  %40 = load i32, ptr %6, align 4, !tbaa !118
  %41 = load ptr, ptr %7, align 8, !tbaa !22
  %42 = call noundef ptr @_ZN6icu_7712NumberFormat12makeInstanceERKNS_6LocaleE18UNumberFormatStyleR10UErrorCode(ptr noundef nonnull align 8 dereferenceable(217) %39, i32 noundef %40, ptr noundef nonnull align 4 dereferenceable(4) %41)
  store ptr %42, ptr %4, align 8
  br label %43

43:                                               ; preds = %38, %32
  %44 = load ptr, ptr %4, align 8
  ret ptr %44
}

; Function Attrs: inlinehint mustprogress nounwind uwtable
define linkonce_odr noundef ptr @_ZNK6icu_776Locale7getNameEv(ptr noundef nonnull align 8 dereferenceable(217) %0) #2 comdat align 2 {
  %2 = alloca ptr, align 8
  store ptr %0, ptr %2, align 8, !tbaa !27
  %3 = load ptr, ptr %2, align 8
  %4 = getelementptr inbounds nuw %"class.icu_77::Locale", ptr %3, i32 0, i32 7
  %5 = load ptr, ptr %4, align 8, !tbaa !146
  ret ptr %5
}

; Function Attrs: mustprogress uwtable
define noundef ptr @_ZNK6icu_7714LocaleCacheKeyINS_18SharedNumberFormatEE12createObjectEPKvR10UErrorCode(ptr noundef nonnull align 8 dereferenceable(240) %0, ptr noundef %1, ptr noundef nonnull align 4 dereferenceable(4) %2) unnamed_addr #1 align 2 personality ptr @__gxx_personality_v0 {
  %4 = alloca ptr, align 8
  %5 = alloca ptr, align 8
  %6 = alloca ptr, align 8
  %7 = alloca ptr, align 8
  %8 = alloca ptr, align 8
  %9 = alloca ptr, align 8
  %10 = alloca %"class.icu_77::Locale", align 8
  %11 = alloca ptr, align 8
  %12 = alloca i32, align 4
  %13 = alloca i32, align 4
  %14 = alloca ptr, align 8
  %15 = alloca ptr, align 8
  %16 = alloca i1, align 1
  store ptr %0, ptr %5, align 8, !tbaa !144
  store ptr %1, ptr %6, align 8, !tbaa !22
  store ptr %2, ptr %7, align 8, !tbaa !22
  %17 = load ptr, ptr %5, align 8
  call void @llvm.lifetime.start.p0(i64 8, ptr %8) #15
  %18 = getelementptr inbounds nuw %"class.icu_77::LocaleCacheKey", ptr %17, i32 0, i32 2
  %19 = call noundef ptr @_ZNK6icu_776Locale7getNameEv(ptr noundef nonnull align 8 dereferenceable(217) %18)
  store ptr %19, ptr %8, align 8, !tbaa !17
  call void @llvm.lifetime.start.p0(i64 8, ptr %9) #15
  call void @llvm.lifetime.start.p0(i64 224, ptr %10) #15
  %20 = load ptr, ptr %8, align 8, !tbaa !17
  call void @_ZN6icu_776LocaleC1EPKcS2_S2_S2_(ptr noundef nonnull align 8 dereferenceable(217) %10, ptr noundef %20, ptr noundef null, ptr noundef null, ptr noundef null)
  %21 = load ptr, ptr %7, align 8, !tbaa !22
  %22 = invoke noundef ptr @_ZN6icu_7712NumberFormat22internalCreateInstanceERKNS_6LocaleE18UNumberFormatStyleR10UErrorCode(ptr noundef nonnull align 8 dereferenceable(217) %10, i32 noundef 1, ptr noundef nonnull align 4 dereferenceable(4) %21)
          to label %23 unwind label %29

23:                                               ; preds = %3
  call void @_ZN6icu_776LocaleD1Ev(ptr noundef nonnull align 8 dereferenceable(217) %10) #15
  call void @llvm.lifetime.end.p0(i64 224, ptr %10) #15
  store ptr %22, ptr %9, align 8, !tbaa !40
  %24 = load ptr, ptr %7, align 8, !tbaa !22
  %25 = load i32, ptr %24, align 4, !tbaa !15
  %26 = call noundef signext i8 @_ZL9U_FAILURE10UErrorCode(i32 noundef %25)
  %27 = icmp ne i8 %26, 0
  br i1 %27, label %28, label %33

28:                                               ; preds = %23
  store ptr null, ptr %4, align 8
  store i32 1, ptr %13, align 4
  br label %64

29:                                               ; preds = %3
  %30 = landingpad { ptr, i32 }
          cleanup
  %31 = extractvalue { ptr, i32 } %30, 0
  store ptr %31, ptr %11, align 8
  %32 = extractvalue { ptr, i32 } %30, 1
  store i32 %32, ptr %12, align 4
  call void @_ZN6icu_776LocaleD1Ev(ptr noundef nonnull align 8 dereferenceable(217) %10) #15
  call void @llvm.lifetime.end.p0(i64 224, ptr %10) #15
  br label %66

33:                                               ; preds = %23
  call void @llvm.lifetime.start.p0(i64 8, ptr %14) #15
  %34 = call noundef ptr @_ZN6icu_777UMemorynwEm(i64 noundef 32) #15
  %35 = icmp eq ptr %34, null
  store i1 false, ptr %16, align 1
  br i1 %35, label %39, label %36

36:                                               ; preds = %33
  store ptr %34, ptr %15, align 8
  store i1 true, ptr %16, align 1
  %37 = load ptr, ptr %9, align 8, !tbaa !40
  invoke void @_ZN6icu_7718SharedNumberFormatC2EPNS_12NumberFormatE(ptr noundef nonnull align 8 dereferenceable(32) %34, ptr noundef %37)
          to label %38 unwind label %52

38:                                               ; preds = %36
  br label %39

39:                                               ; preds = %38, %33
  %40 = phi ptr [ %34, %38 ], [ null, %33 ]
  store ptr %40, ptr %14, align 8, !tbaa !56
  %41 = load ptr, ptr %14, align 8, !tbaa !56
  %42 = icmp eq ptr %41, null
  br i1 %42, label %43, label %60

43:                                               ; preds = %39
  %44 = load ptr, ptr %7, align 8, !tbaa !22
  store i32 7, ptr %44, align 4, !tbaa !15
  %45 = load ptr, ptr %9, align 8, !tbaa !40
  %46 = icmp eq ptr %45, null
  br i1 %46, label %51, label %47

47:                                               ; preds = %43
  %48 = load ptr, ptr %45, align 8, !tbaa !30
  %49 = getelementptr inbounds ptr, ptr %48, i64 1
  %50 = load ptr, ptr %49, align 8
  call void %50(ptr noundef nonnull align 8 dereferenceable(60) %45) #15
  br label %51

51:                                               ; preds = %47, %43
  store ptr null, ptr %4, align 8
  store i32 1, ptr %13, align 4
  br label %63

52:                                               ; preds = %36
  %53 = landingpad { ptr, i32 }
          cleanup
  %54 = extractvalue { ptr, i32 } %53, 0
  store ptr %54, ptr %11, align 8
  %55 = extractvalue { ptr, i32 } %53, 1
  store i32 %55, ptr %12, align 4
  %56 = load i1, ptr %16, align 1
  br i1 %56, label %57, label %59

57:                                               ; preds = %52
  %58 = load ptr, ptr %15, align 8
  call void @_ZN6icu_777UMemorydlEPv(ptr noundef %58) #15
  br label %59

59:                                               ; preds = %57, %52
  call void @llvm.lifetime.end.p0(i64 8, ptr %14) #15
  br label %66

60:                                               ; preds = %39
  %61 = load ptr, ptr %14, align 8, !tbaa !56
  call void @_ZNK6icu_7712SharedObject6addRefEv(ptr noundef nonnull align 8 dereferenceable(24) %61)
  %62 = load ptr, ptr %14, align 8, !tbaa !56
  store ptr %62, ptr %4, align 8
  store i32 1, ptr %13, align 4
  br label %63

63:                                               ; preds = %60, %51
  call void @llvm.lifetime.end.p0(i64 8, ptr %14) #15
  br label %64

64:                                               ; preds = %63, %28
  call void @llvm.lifetime.end.p0(i64 8, ptr %9) #15
  call void @llvm.lifetime.end.p0(i64 8, ptr %8) #15
  %65 = load ptr, ptr %4, align 8
  ret ptr %65

66:                                               ; preds = %59, %29
  call void @llvm.lifetime.end.p0(i64 8, ptr %9) #15
  call void @llvm.lifetime.end.p0(i64 8, ptr %8) #15
  br label %67

67:                                               ; preds = %66
  %68 = load ptr, ptr %11, align 8
  %69 = load i32, ptr %12, align 4
  %70 = insertvalue { ptr, i32 } poison, ptr %68, 0
  %71 = insertvalue { ptr, i32 } %70, i32 %69, 1
  resume { ptr, i32 } %71
}