; Function Attrs: mustprogress uwtable
define noundef ptr @_ZNK6icu_7714LocaleCacheKeyINS_18SharedNumberFormatEE12createObjectEPKvR10UErrorCode(ptr noundef nonnull readonly align 8 captures(none) dereferenceable(240) %0, ptr readnone captures(none) %1, ptr noundef nonnull align 4 dereferenceable(4) %2) unnamed_addr #1 align 2 personality ptr @__gxx_personality_v0 {
  %4 = alloca %"class.icu_77::Locale", align 8
  %5 = getelementptr inbounds nuw i8, ptr %0, i64 56
  %6 = load ptr, ptr %5, align 8, !tbaa !81
  call void @llvm.lifetime.start.p0(i64 224, ptr nonnull %4) #22
  call void @_ZN6icu_776LocaleC1EPKcS2_S2_S2_(ptr noundef nonnull align 8 dereferenceable(217) %4, ptr noundef %6, ptr noundef null, ptr noundef null, ptr noundef null)
  %7 = invoke fastcc noundef signext i8 @_ZN6icu_77L11haveServiceEv()
          to label %.noexc unwind label %15

.noexc:                                           ; preds = %3
  %.not14.i = icmp eq i8 %7, 0
  br i1 %.not14.i, label %11, label %8

8:                                                ; preds = %.noexc
  %9 = load ptr, ptr @_ZL8gService, align 8, !tbaa !66
  %10 = invoke noundef ptr @_ZNK6icu_7716ICULocaleService3getERKNS_6LocaleEiR10UErrorCode(ptr noundef nonnull align 8 dereferenceable(408) %9, ptr noundef nonnull align 8 dereferenceable(217) %4, i32 noundef 1, ptr noundef nonnull align 4 dereferenceable(4) %2)
          to label %_ZN6icu_7712NumberFormat22internalCreateInstanceERKNS_6LocaleE18UNumberFormatStyleR10UErrorCode.exit unwind label %15

11:                                               ; preds = %.noexc
  %12 = invoke noundef ptr @_ZN6icu_7712NumberFormat12makeInstanceERKNS_6LocaleE18UNumberFormatStyleaR10UErrorCode(ptr noundef nonnull align 8 dereferenceable(217) %4, i32 noundef 1, i8 noundef signext 0, ptr noundef nonnull align 4 dereferenceable(4) %2)
          to label %_ZN6icu_7712NumberFormat22internalCreateInstanceERKNS_6LocaleE18UNumberFormatStyleR10UErrorCode.exit unwind label %15

_ZN6icu_7712NumberFormat22internalCreateInstanceERKNS_6LocaleE18UNumberFormatStyleR10UErrorCode.exit: ; preds = %8, %11
  %.0.i = phi ptr [ %10, %8 ], [ %12, %11 ]
  call void @_ZN6icu_776LocaleD1Ev(ptr noundef nonnull align 8 dereferenceable(217) %4) #22
  call void @llvm.lifetime.end.p0(i64 224, ptr nonnull %4) #22
  %13 = load i32, ptr %2, align 4, !tbaa !13
  %14 = icmp slt i32 %13, 1
  br i1 %14, label %17, label %29

15:                                               ; preds = %11, %8, %3
  %16 = landingpad { ptr, i32 }
          cleanup
  call void @_ZN6icu_776LocaleD1Ev(ptr noundef nonnull align 8 dereferenceable(217) %4) #22
  call void @llvm.lifetime.end.p0(i64 224, ptr nonnull %4) #22
  resume { ptr, i32 } %16

17:                                               ; preds = %_ZN6icu_7712NumberFormat22internalCreateInstanceERKNS_6LocaleE18UNumberFormatStyleR10UErrorCode.exit
  %18 = call noundef ptr @_ZN6icu_777UMemorynwEm(i64 noundef 32) #22
  %19 = icmp eq ptr %18, null
  br i1 %19, label %20, label %26

20:                                               ; preds = %17
  store i32 7, ptr %2, align 4, !tbaa !13
  %21 = icmp eq ptr %.0.i, null
  br i1 %21, label %29, label %22

22:                                               ; preds = %20
  %23 = load ptr, ptr %.0.i, align 8, !tbaa !15
  %24 = getelementptr inbounds nuw i8, ptr %23, i64 8
  %25 = load ptr, ptr %24, align 8
  call void %25(ptr noundef nonnull align 8 dereferenceable(60) %.0.i) #22
  br label %29

26:                                               ; preds = %17
  %27 = getelementptr inbounds nuw i8, ptr %18, i64 8
  call void @llvm.memset.p0.i64(ptr noundef nonnull align 8 dereferenceable(16) %27, i8 0, i64 16, i1 false)
  store ptr getelementptr inbounds nuw inrange(-16, 24) (i8, ptr @_ZTVN6icu_7718SharedNumberFormatE, i64 16), ptr %18, align 8, !tbaa !15
  %28 = getelementptr inbounds nuw i8, ptr %18, i64 24
  store ptr %.0.i, ptr %28, align 8, !tbaa !38
  call void @_ZNK6icu_7712SharedObject6addRefEv(ptr noundef nonnull align 8 dereferenceable(24) %18)
  br label %29

29:                                               ; preds = %26, %22, %20, %_ZN6icu_7712NumberFormat22internalCreateInstanceERKNS_6LocaleE18UNumberFormatStyleR10UErrorCode.exit
  %.0 = phi ptr [ null, %_ZN6icu_7712NumberFormat22internalCreateInstanceERKNS_6LocaleE18UNumberFormatStyleR10UErrorCode.exit ], [ %18, %26 ], [ null, %22 ], [ null, %20 ]
  ret ptr %.0
}